target datalayout = "e-m:e-p270:32:32-p271:32:32-p272:64:64-i64:64-i128:128-f80:128-n8:16:32:64-S128"
target triple = "x86_64-pc-linux-gnu"

%struct._lv_chart_t = type { %struct._lv_obj_t, %struct.lv_ll_t, %struct.lv_ll_t, [2 x i32], [2 x i32], [2 x i32], [2 x i32], i32, i32, i32, i32, i8 }
%struct._lv_obj_t = type { ptr, ptr, ptr, ptr, ptr, %struct.lv_area_t, i32, i16, i16 }
%struct.lv_area_t = type { i32, i32, i32, i32 }
%struct.lv_ll_t = type { i32, ptr, ptr }
%struct._lv_chart_series_t = type { ptr, ptr, %struct.lv_color_t, i32, i8 }
%struct.lv_color_t = type { i8, i8, i8 }

; Function Attrs: nounwind uwtable
define void @lv_chart_set_value_by_id2(ptr noundef %0, ptr noundef %1, i32 noundef %2, i32 noundef %3, i32 noundef %4) #0 {
  %6 = alloca ptr, align 8
  %7 = alloca ptr, align 8
  %8 = alloca i32, align 4
  %9 = alloca i32, align 4
  %10 = alloca i32, align 4
  %11 = alloca ptr, align 8
  %12 = alloca i32, align 4
  store ptr %0, ptr %6, align 8, !tbaa !3
  store ptr %1, ptr %7, align 8, !tbaa !3
  store i32 %2, ptr %8, align 4, !tbaa !7
  store i32 %3, ptr %9, align 4, !tbaa !7
  store i32 %4, ptr %10, align 4, !tbaa !7
  br label %13

13:                                               ; preds = %5
  br label %14

14:                                               ; preds = %13
  br label %15

15:                                               ; preds = %14
  %16 = load ptr, ptr %7, align 8, !tbaa !3
  %17 = icmp ne ptr %16, null
  br i1 %17, label %22, label %18

18:                                               ; preds = %15
  br label %19

19:                                               ; preds = %18
  br label %20

20:                                               ; preds = %19
  br label %21

21:                                               ; preds = %20, %21
  br label %21

22:                                               ; preds = %15
  br label %23

23:                                               ; preds = %22
  call void @llvm.lifetime.start.p0(i64 8, ptr %11) #5
  %24 = load ptr, ptr %6, align 8, !tbaa !3
  store ptr %24, ptr %11, align 8, !tbaa !3
  %25 = load ptr, ptr %11, align 8, !tbaa !3
  %26 = getelementptr inbounds nuw %struct._lv_chart_t, ptr %25, i32 0, i32 11
  %27 = load i8, ptr %26, align 8
  %28 = and i8 %27, 7
  %29 = zext i8 %28 to i32
  %30 = icmp ne i32 %29, 3
  br i1 %30, label %31, label %35

31:                                               ; preds = %23
  br label %32

32:                                               ; preds = %31
  br label %33

33:                                               ; preds = %32
  br label %34

34:                                               ; preds = %33
  store i32 1, ptr %12, align 4
  br label %59

35:                                               ; preds = %23
  %36 = load i32, ptr %8, align 4, !tbaa !7
  %37 = load ptr, ptr %11, align 8, !tbaa !3
  %38 = getelementptr inbounds nuw %struct._lv_chart_t, ptr %37, i32 0, i32 10
  %39 = load i32, ptr %38, align 4, !tbaa !16
  %40 = icmp uge i32 %36, %39
  br i1 %40, label %41, label %42

41:                                               ; preds = %35
  store i32 1, ptr %12, align 4
  br label %59

42:                                               ; preds = %35
  %43 = load i32, ptr %9, align 4, !tbaa !7
  %44 = load ptr, ptr %7, align 8, !tbaa !3
  %45 = getelementptr inbounds nuw %struct._lv_chart_series_t, ptr %44, i32 0, i32 0
  %46 = load ptr, ptr %45, align 8, !tbaa !24
  %47 = load i32, ptr %8, align 4, !tbaa !7
  %48 = zext i32 %47 to i64
  %49 = getelementptr inbounds nuw i32, ptr %46, i64 %48
  store i32 %43, ptr %49, align 4, !tbaa !7
  %50 = load i32, ptr %10, align 4, !tbaa !7
  %51 = load ptr, ptr %7, align 8, !tbaa !3
  %52 = getelementptr inbounds nuw %struct._lv_chart_series_t, ptr %51, i32 0, i32 1
  %53 = load ptr, ptr %52, align 8, !tbaa !21
  %54 = load i32, ptr %8, align 4, !tbaa !7
  %55 = zext i32 %54 to i64
  %56 = getelementptr inbounds nuw i32, ptr %53, i64 %55
  store i32 %50, ptr %56, align 4, !tbaa !7
  %57 = load ptr, ptr %6, align 8, !tbaa !3
  %58 = load i32, ptr %8, align 4, !tbaa !7
  call void @invalidate_point(ptr noundef %57, i32 noundef %58)
  store i32 0, ptr %12, align 4
  br label %59

59:                                               ; preds = %42, %41, %34
  call void @llvm.lifetime.end.p0(i64 8, ptr %11) #5
  %60 = load i32, ptr %12, align 4
  switch i32 %60, label %62 [
    i32 0, label %61
    i32 1, label %61
  ]

61:                                               ; preds = %59, %59
  ret void

62:                                               ; preds = %59
  unreachable
}