; Function Attrs: nounwind uwtable
define void @lv_chart_set_value_by_id2(ptr noundef %0, ptr noundef readonly %1, i32 noundef %2, i32 noundef %3, i32 noundef %4) local_unnamed_addr #0 {
  %.not = icmp eq ptr %1, null
  br i1 %.not, label %.preheader, label %6

.preheader:                                       ; preds = %5, %.preheader
  br label %.preheader

6:                                                ; preds = %5
  %7 = getelementptr inbounds nuw i8, ptr %0, i64 160
  %8 = load i8, ptr %7, align 8
  %9 = and i8 %8, 7
  %.not13 = icmp eq i8 %9, 3
  br i1 %.not13, label %10, label %20

10:                                               ; preds = %6
  %11 = getelementptr inbounds nuw i8, ptr %0, i64 156
  %12 = load i32, ptr %11, align 4, !tbaa !15
  %.not14 = icmp ult i32 %2, %12
  br i1 %.not14, label %13, label %20

13:                                               ; preds = %10
  %14 = load ptr, ptr %1, align 8, !tbaa !21
  %15 = zext i32 %2 to i64
  %16 = getelementptr inbounds nuw i32, ptr %14, i64 %15
  store i32 %3, ptr %16, align 4, !tbaa !3
  %17 = getelementptr inbounds nuw i8, ptr %1, i64 8
  %18 = load ptr, ptr %17, align 8, !tbaa !18
  %19 = getelementptr inbounds nuw i32, ptr %18, i64 %15
  store i32 %4, ptr %19, align 4, !tbaa !3
  tail call fastcc void @invalidate_point(ptr noundef nonnull %0, i32 noundef %2)
  br label %20

20:                                               ; preds = %10, %6, %13
  ret void
}